target datalayout = "e-m:e-p270:32:32-p271:32:32-p272:64:64-i64:64-i128:128-f80:128-n8:16:32:64-S128"
target triple = "x86_64-pc-linux-gnu"

%struct.stbtt_aligned_quad = type { float, float, float, float, float, float, float, float }
%struct.stbtt_packedchar = type { i16, i16, i16, i16, float, float, float, float, float }

; Function Attrs: mustprogress nounwind uwtable
define linkonce_odr dso_local noundef float @_ZSt5floorf(float noundef %0) #1 comdat {
  %2 = alloca float, align 4
  store float %0, ptr %2, align 4
  %3 = load float, ptr %2, align 4
  %4 = call float @llvm.floor.f32(float %3)
  ret float %4
}

; Function Attrs: mustprogress uwtable
define dso_local void @stbtt_GetPackedQuad(ptr noundef %0, i32 noundef %1, i32 noundef %2, i32 noundef %3, ptr noundef %4, ptr noundef %5, ptr noundef %6, i32 noundef %7) #0 {
  %9 = alloca ptr, align 8
  %10 = alloca i32, align 4
  %11 = alloca i32, align 4
  %12 = alloca i32, align 4
  %13 = alloca ptr, align 8
  %14 = alloca ptr, align 8
  %15 = alloca ptr, align 8
  %16 = alloca i32, align 4
  %17 = alloca float, align 4
  %18 = alloca float, align 4
  %19 = alloca ptr, align 8
  %20 = alloca float, align 4
  %21 = alloca float, align 4
  store ptr %0, ptr %9, align 8
  store i32 %1, ptr %10, align 4
  store i32 %2, ptr %11, align 4
  store i32 %3, ptr %12, align 4
  store ptr %4, ptr %13, align 8
  store ptr %5, ptr %14, align 8
  store ptr %6, ptr %15, align 8
  store i32 %7, ptr %16, align 4
  %22 = load i32, ptr %10, align 4
  %23 = sitofp i32 %22 to float
  %24 = fdiv float 1.000000e+00, %23
  store float %24, ptr %17, align 4
  %25 = load i32, ptr %11, align 4
  %26 = sitofp i32 %25 to float
  %27 = fdiv float 1.000000e+00, %26
  store float %27, ptr %18, align 4
  %28 = load ptr, ptr %9, align 8
  %29 = load i32, ptr %12, align 4
  %30 = sext i32 %29 to i64
  %31 = getelementptr inbounds %struct.stbtt_packedchar, ptr %28, i64 %30
  store ptr %31, ptr %19, align 8
  %32 = load i32, ptr %16, align 4
  %33 = icmp ne i32 %32, 0
  br i1 %33, label %34, label %83

34:                                               ; preds = %8
  %35 = load ptr, ptr %13, align 8
  %36 = load float, ptr %35, align 4
  %37 = load ptr, ptr %19, align 8
  %38 = getelementptr inbounds %struct.stbtt_packedchar, ptr %37, i32 0, i32 4
  %39 = load float, ptr %38, align 4
  %40 = fadd float %36, %39
  %41 = fadd float %40, 5.000000e-01
  %42 = call noundef float @_ZSt5floorf(float noundef %41)
  %43 = fptosi float %42 to i32
  %44 = sitofp i32 %43 to float
  store float %44, ptr %20, align 4
  %45 = load ptr, ptr %14, align 8
  %46 = load float, ptr %45, align 4
  %47 = load ptr, ptr %19, align 8
  %48 = getelementptr inbounds %struct.stbtt_packedchar, ptr %47, i32 0, i32 5
  %49 = load float, ptr %48, align 4
  %50 = fadd float %46, %49
  %51 = fadd float %50, 5.000000e-01
  %52 = call noundef float @_ZSt5floorf(float noundef %51)
  %53 = fptosi float %52 to i32
  %54 = sitofp i32 %53 to float
  store float %54, ptr %21, align 4
  %55 = load float, ptr %20, align 4
  %56 = load ptr, ptr %15, align 8
  %57 = getelementptr inbounds %struct.stbtt_aligned_quad, ptr %56, i32 0, i32 0
  store float %55, ptr %57, align 4
  %58 = load float, ptr %21, align 4
  %59 = load ptr, ptr %15, align 8
  %60 = getelementptr inbounds %struct.stbtt_aligned_quad, ptr %59, i32 0, i32 1
  store float %58, ptr %60, align 4
  %61 = load float, ptr %20, align 4
  %62 = load ptr, ptr %19, align 8
  %63 = getelementptr inbounds %struct.stbtt_packedchar, ptr %62, i32 0, i32 7
  %64 = load float, ptr %63, align 4
  %65 = fadd float %61, %64
  %66 = load ptr, ptr %19, align 8
  %67 = getelementptr inbounds %struct.stbtt_packedchar, ptr %66, i32 0, i32 4
  %68 = load float, ptr %67, align 4
  %69 = fsub float %65, %68
  %70 = load ptr, ptr %15, align 8
  %71 = getelementptr inbounds %struct.stbtt_aligned_quad, ptr %70, i32 0, i32 4
  store float %69, ptr %71, align 4
  %72 = load float, ptr %21, align 4
  %73 = load ptr, ptr %19, align 8
  %74 = getelementptr inbounds %struct.stbtt_packedchar, ptr %73, i32 0, i32 8
  %75 = load float, ptr %74, align 4
  %76 = fadd float %72, %75
  %77 = load ptr, ptr %19, align 8
  %78 = getelementptr inbounds %struct.stbtt_packedchar, ptr %77, i32 0, i32 5
  %79 = load float, ptr %78, align 4
  %80 = fsub float %76, %79
  %81 = load ptr, ptr %15, align 8
  %82 = getelementptr inbounds %struct.stbtt_aligned_quad, ptr %81, i32 0, i32 5
  store float %80, ptr %82, align 4
  br label %116

83:                                               ; preds = %8
  %84 = load ptr, ptr %13, align 8
  %85 = load float, ptr %84, align 4
  %86 = load ptr, ptr %19, align 8
  %87 = getelementptr inbounds %struct.stbtt_packedchar, ptr %86, i32 0, i32 4
  %88 = load float, ptr %87, align 4
  %89 = fadd float %85, %88
  %90 = load ptr, ptr %15, align 8
  %91 = getelementptr inbounds %struct.stbtt_aligned_quad, ptr %90, i32 0, i32 0
  store float %89, ptr %91, align 4
  %92 = load ptr, ptr %14, align 8
  %93 = load float, ptr %92, align 4
  %94 = load ptr, ptr %19, align 8
  %95 = getelementptr inbounds %struct.stbtt_packedchar, ptr %94, i32 0, i32 5
  %96 = load float, ptr %95, align 4
  %97 = fadd float %93, %96
  %98 = load ptr, ptr %15, align 8
  %99 = getelementptr inbounds %struct.stbtt_aligned_quad, ptr %98, i32 0, i32 1
  store float %97, ptr %99, align 4
  %100 = load ptr, ptr %13, align 8
  %101 = load float, ptr %100, align 4
  %102 = load ptr, ptr %19, align 8
  %103 = getelementptr inbounds %struct.stbtt_packedchar, ptr %102, i32 0, i32 7
  %104 = load float, ptr %103, align 4
  %105 = fadd float %101, %104
  %106 = load ptr, ptr %15, align 8
  %107 = getelementptr inbounds %struct.stbtt_aligned_quad, ptr %106, i32 0, i32 4
  store float %105, ptr %107, align 4
  %108 = load ptr, ptr %14, align 8
  %109 = load float, ptr %108, align 4
  %110 = load ptr, ptr %19, align 8
  %111 = getelementptr inbounds %struct.stbtt_packedchar, ptr %110, i32 0, i32 8
  %112 = load float, ptr %111, align 4
  %113 = fadd float %109, %112
  %114 = load ptr, ptr %15, align 8
  %115 = getelementptr inbounds %struct.stbtt_aligned_quad, ptr %114, i32 0, i32 5
  store float %113, ptr %115, align 4
  br label %116

116:                                              ; preds = %83, %34
  %117 = load ptr, ptr %19, align 8
  %118 = getelementptr inbounds %struct.stbtt_packedchar, ptr %117, i32 0, i32 0
  %119 = load i16, ptr %118, align 4
  %120 = zext i16 %119 to i32
  %121 = sitofp i32 %120 to float
  %122 = load float, ptr %17, align 4
  %123 = fmul float %121, %122
  %124 = load ptr, ptr %15, align 8
  %125 = getelementptr inbounds %struct.stbtt_aligned_quad, ptr %124, i32 0, i32 2
  store float %123, ptr %125, align 4
  %126 = load ptr, ptr %19, align 8
  %127 = getelementptr inbounds %struct.stbtt_packedchar, ptr %126, i32 0, i32 1
  %128 = load i16, ptr %127, align 2
  %129 = zext i16 %128 to i32
  %130 = sitofp i32 %129 to float
  %131 = load float, ptr %18, align 4
  %132 = fmul float %130, %131
  %133 = load ptr, ptr %15, align 8
  %134 = getelementptr inbounds %struct.stbtt_aligned_quad, ptr %133, i32 0, i32 3
  store float %132, ptr %134, align 4
  %135 = load ptr, ptr %19, align 8
  %136 = getelementptr inbounds %struct.stbtt_packedchar, ptr %135, i32 0, i32 2
  %137 = load i16, ptr %136, align 4
  %138 = zext i16 %137 to i32
  %139 = sitofp i32 %138 to float
  %140 = load float, ptr %17, align 4
  %141 = fmul float %139, %140
  %142 = load ptr, ptr %15, align 8
  %143 = getelementptr inbounds %struct.stbtt_aligned_quad, ptr %142, i32 0, i32 6
  store float %141, ptr %143, align 4
  %144 = load ptr, ptr %19, align 8
  %145 = getelementptr inbounds %struct.stbtt_packedchar, ptr %144, i32 0, i32 3
  %146 = load i16, ptr %145, align 2
  %147 = zext i16 %146 to i32
  %148 = sitofp i32 %147 to float
  %149 = load float, ptr %18, align 4
  %150 = fmul float %148, %149
  %151 = load ptr, ptr %15, align 8
  %152 = getelementptr inbounds %struct.stbtt_aligned_quad, ptr %151, i32 0, i32 7
  store float %150, ptr %152, align 4
  %153 = load ptr, ptr %19, align 8
  %154 = getelementptr inbounds %struct.stbtt_packedchar, ptr %153, i32 0, i32 6
  %155 = load float, ptr %154, align 4
  %156 = load ptr, ptr %13, align 8
  %157 = load float, ptr %156, align 4
  %158 = fadd float %157, %155
  store float %158, ptr %156, align 4
  ret void
}