; Function Attrs: mustprogress nofree norecurse nosync nounwind willreturn memory(argmem: readwrite) uwtable
define dso_local void @stbtt_GetPackedQuad(ptr noundef readonly captures(none) %0, i32 noundef %1, i32 noundef %2, i32 noundef %3, ptr noundef captures(none) %4, ptr noundef readonly captures(none) %5, ptr noundef writeonly captures(none) initializes((0, 32)) %6, i32 noundef %7) local_unnamed_addr #10 {
  %9 = sext i32 %3 to i64
  %10 = getelementptr inbounds %struct.stbtt_packedchar, ptr %0, i64 %9
  %.not = icmp eq i32 %7, 0
  %11 = load float, ptr %4, align 4
  %12 = getelementptr inbounds nuw i8, ptr %10, i64 8
  %13 = load float, ptr %12, align 4
  %14 = fadd float %11, %13
  br i1 %.not, label %40, label %15

15:                                               ; preds = %8
  %16 = fadd float %14, 5.000000e-01
  %17 = tail call noundef float @llvm.floor.f32(float %16)
  %18 = fptosi float %17 to i32
  %19 = sitofp i32 %18 to float
  %20 = load float, ptr %5, align 4
  %21 = getelementptr inbounds nuw i8, ptr %10, i64 12
  %22 = load float, ptr %21, align 4
  %23 = fadd float %20, %22
  %24 = fadd float %23, 5.000000e-01
  %25 = tail call noundef float @llvm.floor.f32(float %24)
  %26 = fptosi float %25 to i32
  %27 = sitofp i32 %26 to float
  store float %19, ptr %6, align 4
  %28 = getelementptr inbounds nuw i8, ptr %6, i64 4
  store float %27, ptr %28, align 4
  %29 = getelementptr inbounds nuw i8, ptr %10, i64 20
  %30 = load float, ptr %29, align 4
  %31 = fadd float %30, %19
  %32 = load float, ptr %12, align 4
  %33 = fsub float %31, %32
  %34 = getelementptr inbounds nuw i8, ptr %6, i64 16
  store float %33, ptr %34, align 4
  %35 = getelementptr inbounds nuw i8, ptr %10, i64 24
  %36 = load float, ptr %35, align 4
  %37 = fadd float %36, %27
  %38 = load float, ptr %21, align 4
  %39 = fsub float %37, %38
  br label %55

40:                                               ; preds = %8
  store float %14, ptr %6, align 4
  %41 = load float, ptr %5, align 4
  %42 = getelementptr inbounds nuw i8, ptr %10, i64 12
  %43 = load float, ptr %42, align 4
  %44 = fadd float %41, %43
  %45 = getelementptr inbounds nuw i8, ptr %6, i64 4
  store float %44, ptr %45, align 4
  %46 = load float, ptr %4, align 4
  %47 = getelementptr inbounds nuw i8, ptr %10, i64 20
  %48 = load float, ptr %47, align 4
  %49 = fadd float %46, %48
  %50 = getelementptr inbounds nuw i8, ptr %6, i64 16
  store float %49, ptr %50, align 4
  %51 = load float, ptr %5, align 4
  %52 = getelementptr inbounds nuw i8, ptr %10, i64 24
  %53 = load float, ptr %52, align 4
  %54 = fadd float %51, %53
  br label %55

55:                                               ; preds = %40, %15
  %.sink = phi float [ %54, %40 ], [ %39, %15 ]
  %56 = getelementptr inbounds nuw i8, ptr %6, i64 20
  store float %.sink, ptr %56, align 4
  %57 = sitofp i32 %2 to float
  %58 = fdiv float 1.000000e+00, %57
  %59 = sitofp i32 %1 to float
  %60 = fdiv float 1.000000e+00, %59
  %61 = load i16, ptr %10, align 4
  %62 = uitofp i16 %61 to float
  %63 = fmul float %60, %62
  %64 = getelementptr inbounds nuw i8, ptr %6, i64 8
  store float %63, ptr %64, align 4
  %65 = getelementptr inbounds nuw i8, ptr %10, i64 2
  %66 = load i16, ptr %65, align 2
  %67 = uitofp i16 %66 to float
  %68 = fmul float %58, %67
  %69 = getelementptr inbounds nuw i8, ptr %6, i64 12
  store float %68, ptr %69, align 4
  %70 = getelementptr inbounds nuw i8, ptr %10, i64 4
  %71 = load i16, ptr %70, align 4
  %72 = uitofp i16 %71 to float
  %73 = fmul float %60, %72
  %74 = getelementptr inbounds nuw i8, ptr %6, i64 24
  store float %73, ptr %74, align 4
  %75 = getelementptr inbounds nuw i8, ptr %10, i64 6
  %76 = load i16, ptr %75, align 2
  %77 = uitofp i16 %76 to float
  %78 = fmul float %58, %77
  %79 = getelementptr inbounds nuw i8, ptr %6, i64 28
  store float %78, ptr %79, align 4
  %80 = getelementptr inbounds nuw i8, ptr %10, i64 16
  %81 = load float, ptr %80, align 4
  %82 = load float, ptr %4, align 4
  %83 = fadd float %81, %82
  store float %83, ptr %4, align 4
  ret void
}